target datalayout = "e-m:e-p270:32:32-p271:32:32-p272:64:64-i64:64-i128:128-f80:128-n8:16:32:64-S128"
target triple = "x86_64-pc-linux-gnu"

%struct.pointf_s = type { double, double }
%struct.GVJ_s = type { ptr, ptr, ptr, ptr, ptr, ptr, i32, ptr, ptr, ptr, ptr, i64, i64, ptr, i32, %struct.gvplugin_active_render_s, %struct.gvplugin_active_device_s, %struct.gvplugin_active_loadimage_t, ptr, %struct.pointf_s, i8, ptr, i32, ptr, i8, ptr, i32, i32, i32, %struct.point, %struct.point, %struct.point, %struct.point, %struct.point, i32, %struct.boxf, %struct.pointf_s, %struct.boxf, %struct.boxf, %struct.pointf_s, %struct.pointf_s, double, i32, %struct.pointf_s, %struct.boxf, %struct.pointf_s, %struct.pointf_s, i32, i32, %struct.box, %struct.box, %struct.pointf_s, %struct.pointf_s, %struct.pointf_s, i8, i8, i8, i8, i8, i8, %struct.pointf_s, %struct.pointf_s, ptr, ptr, ptr, ptr, ptr, ptr, i64, ptr }
%struct.gvplugin_active_render_s = type { ptr, i32, ptr, ptr }
%struct.gvplugin_active_device_s = type { ptr, i32, ptr, ptr }
%struct.gvplugin_active_loadimage_t = type { ptr, i32, ptr }
%struct.point = type { i32, i32 }
%struct.boxf = type { %struct.pointf_s, %struct.pointf_s }
%struct.box = type { %struct.point, %struct.point }
%struct.GVCOMMON_s = type { ptr, ptr, i32, i8, i8, ptr, ptr, ptr, i32, ptr, i32 }
%struct.obj_state_s = type { ptr, i32, %union.anon, i32, %struct.color_s, %struct.color_s, %struct.color_s, i32, double, i32, i32, double, ptr, double, double, double, ptr, ptr, ptr, ptr, ptr, ptr, ptr, ptr, ptr, ptr, ptr, ptr, ptr, ptr, ptr, ptr, ptr, i16, i32, i64, ptr, i64, ptr, ptr, i32, ptr, i32, ptr }
%union.anon = type { ptr }
%struct.color_s = type { %union.anon.0, i32 }
%union.anon.0 = type { [4 x double] }

@.str.2 = private unnamed_addr constant [10 x i8] c"#FIG 3.2\0A\00", align 1
@.str.3 = private unnamed_addr constant [35 x i8] c"# Generated by %s version %s (%s)\0A\00", align 1
@.str.4 = private unnamed_addr constant [13 x i8] c"# Title: %s\0A\00", align 1
@.str.5 = private unnamed_addr constant [13 x i8] c"# Pages: %d\0A\00", align 1
@.str.6 = private unnamed_addr constant [10 x i8] c"Portrait\0A\00", align 1
@.str.7 = private unnamed_addr constant [8 x i8] c"Center\0A\00", align 1
@.str.8 = private unnamed_addr constant [8 x i8] c"Inches\0A\00", align 1
@.str.9 = private unnamed_addr constant [8 x i8] c"Letter\0A\00", align 1
@.str.10 = private unnamed_addr constant [8 x i8] c"100.00\0A\00", align 1
@.str.11 = private unnamed_addr constant [8 x i8] c"Single\0A\00", align 1
@.str.12 = private unnamed_addr constant [4 x i8] c"-2\0A\00", align 1
@.str.13 = private unnamed_addr constant [5 x i8] c"1200\00", align 1
@.str.14 = private unnamed_addr constant [4 x i8] c" 2\0A\00", align 1

; Function Attrs: nounwind uwtable
define internal void @fig_begin_graph(ptr noundef %0) #0 {
  %2 = alloca ptr, align 8
  %3 = alloca ptr, align 8
  store ptr %0, ptr %2, align 8, !tbaa !3
  call void @llvm.lifetime.start.p0(i64 8, ptr %3) #14
  %4 = load ptr, ptr %2, align 8, !tbaa !3
  %5 = getelementptr inbounds nuw %struct.GVJ_s, ptr %4, i32 0, i32 4
  %6 = load ptr, ptr %5, align 8, !tbaa !8
  store ptr %6, ptr %3, align 8, !tbaa !31
  %7 = load ptr, ptr %2, align 8, !tbaa !3
  %8 = call i32 @gvputs(ptr noundef %7, ptr noundef @.str.2)
  %9 = load ptr, ptr %2, align 8, !tbaa !3
  %10 = load ptr, ptr %2, align 8, !tbaa !3
  %11 = getelementptr inbounds nuw %struct.GVJ_s, ptr %10, i32 0, i32 3
  %12 = load ptr, ptr %11, align 8, !tbaa !32
  %13 = getelementptr inbounds nuw %struct.GVCOMMON_s, ptr %12, i32 0, i32 0
  %14 = load ptr, ptr %13, align 8, !tbaa !33
  %15 = getelementptr inbounds ptr, ptr %14, i64 0
  %16 = load ptr, ptr %15, align 8, !tbaa !36
  %17 = load ptr, ptr %2, align 8, !tbaa !3
  %18 = getelementptr inbounds nuw %struct.GVJ_s, ptr %17, i32 0, i32 3
  %19 = load ptr, ptr %18, align 8, !tbaa !32
  %20 = getelementptr inbounds nuw %struct.GVCOMMON_s, ptr %19, i32 0, i32 0
  %21 = load ptr, ptr %20, align 8, !tbaa !33
  %22 = getelementptr inbounds ptr, ptr %21, i64 1
  %23 = load ptr, ptr %22, align 8, !tbaa !36
  %24 = load ptr, ptr %2, align 8, !tbaa !3
  %25 = getelementptr inbounds nuw %struct.GVJ_s, ptr %24, i32 0, i32 3
  %26 = load ptr, ptr %25, align 8, !tbaa !32
  %27 = getelementptr inbounds nuw %struct.GVCOMMON_s, ptr %26, i32 0, i32 0
  %28 = load ptr, ptr %27, align 8, !tbaa !33
  %29 = getelementptr inbounds ptr, ptr %28, i64 2
  %30 = load ptr, ptr %29, align 8, !tbaa !36
  call void (ptr, ptr, ...) @gvprintf(ptr noundef %9, ptr noundef @.str.3, ptr noundef %16, ptr noundef %23, ptr noundef %30)
  %31 = load ptr, ptr %2, align 8, !tbaa !3
  %32 = load ptr, ptr %3, align 8, !tbaa !31
  %33 = getelementptr inbounds nuw %struct.obj_state_s, ptr %32, i32 0, i32 2
  %34 = load ptr, ptr %33, align 8, !tbaa !37
  %35 = call ptr @agnameof(ptr noundef %34)
  call void (ptr, ptr, ...) @gvprintf(ptr noundef %31, ptr noundef @.str.4, ptr noundef %35)
  %36 = load ptr, ptr %2, align 8, !tbaa !3
  %37 = load ptr, ptr %2, align 8, !tbaa !3
  %38 = getelementptr inbounds nuw %struct.GVJ_s, ptr %37, i32 0, i32 29
  %39 = getelementptr inbounds nuw %struct.point, ptr %38, i32 0, i32 0
  %40 = load i32, ptr %39, align 4, !tbaa !38
  %41 = load ptr, ptr %2, align 8, !tbaa !3
  %42 = getelementptr inbounds nuw %struct.GVJ_s, ptr %41, i32 0, i32 29
  %43 = getelementptr inbounds nuw %struct.point, ptr %42, i32 0, i32 1
  %44 = load i32, ptr %43, align 4, !tbaa !39
  %45 = mul nsw i32 %40, %44
  call void (ptr, ptr, ...) @gvprintf(ptr noundef %36, ptr noundef @.str.5, i32 noundef %45)
  %46 = load ptr, ptr %2, align 8, !tbaa !3
  %47 = call i32 @gvputs(ptr noundef %46, ptr noundef @.str.6)
  %48 = load ptr, ptr %2, align 8, !tbaa !3
  %49 = call i32 @gvputs(ptr noundef %48, ptr noundef @.str.7)
  %50 = load ptr, ptr %2, align 8, !tbaa !3
  %51 = call i32 @gvputs(ptr noundef %50, ptr noundef @.str.8)
  %52 = load ptr, ptr %2, align 8, !tbaa !3
  %53 = call i32 @gvputs(ptr noundef %52, ptr noundef @.str.9)
  %54 = load ptr, ptr %2, align 8, !tbaa !3
  %55 = call i32 @gvputs(ptr noundef %54, ptr noundef @.str.10)
  %56 = load ptr, ptr %2, align 8, !tbaa !3
  %57 = call i32 @gvputs(ptr noundef %56, ptr noundef @.str.11)
  %58 = load ptr, ptr %2, align 8, !tbaa !3
  %59 = call i32 @gvputs(ptr noundef %58, ptr noundef @.str.12)
  %60 = load ptr, ptr %2, align 8, !tbaa !3
  %61 = call i32 @gvputs(ptr noundef %60, ptr noundef @.str.13)
  %62 = load ptr, ptr %2, align 8, !tbaa !3
  %63 = call i32 @gvputs(ptr noundef %62, ptr noundef @.str.14)
  call void @llvm.lifetime.end.p0(i64 8, ptr %3) #14
  ret void
}