; Function Attrs: nounwind uwtable
define internal void @fig_begin_graph(ptr noundef %0) #0 {
  %2 = getelementptr inbounds nuw i8, ptr %0, i64 32
  %3 = load ptr, ptr %2, align 8, !tbaa !3
  %4 = tail call i32 @gvputs(ptr noundef %0, ptr noundef nonnull @.str.2) #18
  %5 = getelementptr inbounds nuw i8, ptr %0, i64 24
  %6 = load ptr, ptr %5, align 8, !tbaa !30
  %7 = load ptr, ptr %6, align 8, !tbaa !31
  %8 = load ptr, ptr %7, align 8, !tbaa !34
  %9 = getelementptr inbounds nuw i8, ptr %7, i64 8
  %10 = load ptr, ptr %9, align 8, !tbaa !34
  %11 = getelementptr inbounds nuw i8, ptr %7, i64 16
  %12 = load ptr, ptr %11, align 8, !tbaa !34
  tail call void (ptr, ptr, ...) @gvprintf(ptr noundef %0, ptr noundef nonnull @.str.3, ptr noundef %8, ptr noundef %10, ptr noundef %12) #18
  %13 = getelementptr inbounds nuw i8, ptr %3, i64 16
  %14 = load ptr, ptr %13, align 8, !tbaa !35
  %15 = tail call ptr @agnameof(ptr noundef %14) #18
  tail call void (ptr, ptr, ...) @gvprintf(ptr noundef %0, ptr noundef nonnull @.str.4, ptr noundef %15) #18
  %16 = getelementptr inbounds nuw i8, ptr %0, i64 292
  %17 = load i32, ptr %16, align 4, !tbaa !36
  %18 = getelementptr inbounds nuw i8, ptr %0, i64 296
  %19 = load i32, ptr %18, align 4, !tbaa !37
  %20 = mul nsw i32 %19, %17
  tail call void (ptr, ptr, ...) @gvprintf(ptr noundef %0, ptr noundef nonnull @.str.5, i32 noundef %20) #18
  %21 = tail call i32 @gvputs(ptr noundef %0, ptr noundef nonnull @.str.6) #18
  %22 = tail call i32 @gvputs(ptr noundef %0, ptr noundef nonnull @.str.7) #18
  %23 = tail call i32 @gvputs(ptr noundef %0, ptr noundef nonnull @.str.8) #18
  %24 = tail call i32 @gvputs(ptr noundef %0, ptr noundef nonnull @.str.9) #18
  %25 = tail call i32 @gvputs(ptr noundef %0, ptr noundef nonnull @.str.10) #18
  %26 = tail call i32 @gvputs(ptr noundef %0, ptr noundef nonnull @.str.11) #18
  %27 = tail call i32 @gvputs(ptr noundef %0, ptr noundef nonnull @.str.12) #18
  %28 = tail call i32 @gvputs(ptr noundef %0, ptr noundef nonnull @.str.13) #18
  %29 = tail call i32 @gvputs(ptr noundef %0, ptr noundef nonnull @.str.14) #18
  ret void
}